Certificate:
    Data:
        Version: 3 (0x2)
        Serial Number: 1 (0x1)
        Signature Algorithm: sha256WithRSAEncryption
        Issuer: C=IT, ST=Napoli, L=Castellammare, O=UNISA, OU=Autorit\xC3\x83\xC2\xA0CA, CN=CASicurezza
        Validity
            Not Before: Jun  2 17:00:30 2020 GMT
            Not After : Jun  2 17:00:30 2021 GMT
        Subject: C=IT, ST=Napoli, O=UNISA, OU=ServerGoverno, CN=127.0.0.1
        Subject Public Key Info:
            Public Key Algorithm: rsaEncryption
                RSA Public-Key: (4096 bit)
                Modulus:
                    00:da:88:fc:4f:66:f9:e5:a6:b4:24:03:76:4e:79:
                    a7:1f:be:78:db:6d:ea:5f:74:e2:72:04:36:4a:78:
                    03:86:f1:47:42:f9:2b:a3:f1:10:fb:8d:1b:be:e0:
                    7f:c6:8c:d0:33:44:6f:35:7e:99:82:2f:23:a0:8b:
                    7a:41:9a:83:9b:f3:db:4d:7f:40:89:1a:ef:b6:20:
                    a6:22:9a:a3:99:75:7f:ac:72:3a:76:21:15:f1:42:
                    d9:8a:be:95:b9:64:25:21:c1:0a:3c:a4:8b:a9:e5:
                    e1:26:98:20:7c:dc:a7:af:d4:62:14:5d:09:02:c8:
                    54:e4:1f:e5:fa:50:77:1c:9d:5a:14:4b:c2:84:7a:
                    cc:13:c6:9c:5c:4d:01:ab:87:14:7a:7e:1e:64:f6:
                    28:7e:1f:49:6a:ed:ef:e5:dd:3c:6f:22:e3:2e:c8:
                    08:94:80:81:eb:49:17:12:3d:91:5a:fc:b2:ac:99:
                    ab:de:fa:6f:22:61:53:15:98:64:ae:3d:1c:cd:f2:
                    9b:b8:54:e5:06:b4:a8:7c:c2:a6:51:4a:b1:cf:14:
                    3d:c4:c1:d6:1b:ee:64:77:3a:9c:8a:6b:ae:ce:85:
                    f6:fc:f7:8d:01:3a:56:c0:e7:68:8a:1b:65:2f:79:
                    fc:f6:a6:d3:9d:8d:f5:23:6b:a0:60:e2:24:6c:f0:
                    19:16:71:bb:e3:3b:6c:b7:58:0e:4f:d9:89:60:fc:
                    52:5e:00:f1:b9:5e:4e:52:68:f9:c1:b6:36:98:ec:
                    b7:12:0f:ce:bb:e7:06:88:3c:df:e4:61:9d:ff:43:
                    84:12:90:25:e6:ab:f3:a2:63:fd:4c:fd:28:ad:51:
                    96:2d:15:b5:78:11:33:a0:25:e1:b0:39:0f:1b:e2:
                    2f:50:7f:12:2a:02:ba:07:ff:c7:fc:16:09:ee:9b:
                    50:dd:4b:31:e0:81:68:16:2e:16:22:ba:5d:cd:b9:
                    bd:67:ca:b4:a2:d4:fe:8e:ab:9d:37:5c:81:3f:9f:
                    1b:f9:1d:f0:c3:0c:91:58:f6:63:ac:ba:99:19:b7:
                    b3:f8:13:5d:0a:03:08:93:02:31:8a:8b:e4:e6:dc:
                    20:3e:eb:2d:70:c2:b0:2b:2f:9a:1f:48:95:e5:f5:
                    61:10:c5:29:7f:e1:2a:c7:f4:f5:81:0c:43:df:35:
                    f2:29:02:e0:96:76:8f:b2:7b:95:31:6d:8b:41:18:
                    2a:e2:05:ac:c5:50:14:da:44:14:0d:7c:60:e7:bb:
                    c3:e3:5b:6f:d7:4b:c1:6a:bc:cb:19:4c:8e:5d:eb:
                    df:92:45:24:07:4d:4a:e5:12:7f:79:c3:e5:bf:4a:
                    b1:42:e5:dc:55:7f:83:7d:f3:4f:d1:5a:ec:97:89:
                    f6:41:f1
                Exponent: 65537 (0x10001)
        X509v3 extensions:
            X509v3 Basic Constraints: 
                CA:FALSE
            Netscape Comment: 
                OpenSSL Generated Certificate
            X509v3 Subject Key Identifier: 
                82:B0:4A:A0:0E:87:43:96:8E:A8:1F:27:78:36:FC:F7:80:70:21:7F
            X509v3 Authority Key Identifier: 
                keyid:64:30:4A:96:E2:95:F7:99:89:61:DA:62:2F:3C:49:33:1B:AE:17:D7

    Signature Algorithm: sha256WithRSAEncryption
         89:0a:50:16:0b:8a:41:68:ee:3f:69:61:4b:a1:75:a6:e3:ce:
         cb:c4:ab:69:80:52:00:6b:c5:60:40:88:14:e5:6a:9c:c9:c5:
         41:8e:4f:cf:4d:d0:ff:c6:fa:be:d5:e4:86:97:e9:98:5b:61:
         a8:3b:20:58:5f:68:cb:6c:27:33:e7:24:df:6d:fe:73:1f:00:
         67:8d:12:fb:20:a5:5e:a3:61:4e:bb:2f:8d:ff:36:6b:a3:21:
         86:f6:4b:68:f3:18:df:48:17:ad:b4:b0:03:86:81:58:c8:9c:
         15:97:2c:00:02:88:5d:ff:dc:36:66:e6:23:f6:d1:60:73:78:
         fb:96:76:33:53:93:32:bb:94:17:c0:ef:66:55:79:45:1d:b8:
         ae:cf:67:29:60:7f:aa:0d:b3:bd:bf:33:41:f2:86:57:a8:72:
         62:bd:2a:85:67:53:48:32:bc:a9:60:1f:58:87:74:a7:74:10:
         90:22:63:d9:8f:bb:59:dc:f7:ca:c7:8e:b5:e2:5a:5c:b4:10:
         f5:4a:65:1c:2c:11:1f:b3:22:5b:9f:47:3e:f2:fe:52:de:2c:
         6c:b6:39:35:2c:9b:c8:71:a7:b5:92:36:c3:be:b9:cb:fa:4a:
         b7:52:ba:b3:ad:b4:d1:2f:a8:60:e7:a9:4f:38:ab:ee:53:dd:
         1f:7b:da:e5
-----BEGIN CERTIFICATE-----
MIIExDCCA6ygAwIBAgIBATANBgkqhkiG9w0BAQsFADB0MQswCQYDVQQGEwJJVDEP
MA0GA1UECAwGTmFwb2xpMRYwFAYDVQQHDA1DYXN0ZWxsYW1tYXJlMQ4wDAYDVQQK
DAVVTklTQTEWMBQGA1UECwwNQXV0b3JpdMODwqBDQTEUMBIGA1UEAwwLQ0FTaWN1
cmV6emEwHhcNMjAwNjAyMTcwMDMwWhcNMjEwNjAyMTcwMDMwWjBaMQswCQYDVQQG
EwJJVDEPMA0GA1UECAwGTmFwb2xpMQ4wDAYDVQQKDAVVTklTQTEWMBQGA1UECwwN
U2VydmVyR292ZXJubzESMBAGA1UEAwwJMTI3LjAuMC4xMIICIjANBgkqhkiG9w0B
AQEFAAOCAg8AMIICCgKCAgEA2oj8T2b55aa0JAN2TnmnH754223qX3TicgQ2SngD
hvFHQvkro/EQ+40bvuB/xozQM0RvNX6Zgi8joIt6QZqDm/PbTX9AiRrvtiCmIpqj
mXV/rHI6diEV8ULZir6VuWQlIcEKPKSLqeXhJpggfNynr9RiFF0JAshU5B/l+lB3
HJ1aFEvChHrME8acXE0Bq4cUen4eZPYofh9Jau3v5d08byLjLsgIlICB60kXEj2R
WvyyrJmr3vpvImFTFZhkrj0czfKbuFTlBrSofMKmUUqxzxQ9xMHWG+5kdzqcimuu
zoX2/PeNATpWwOdoihtlL3n89qbTnY31I2ugYOIkbPAZFnG74ztst1gOT9mJYPxS
XgDxuV5OUmj5wbY2mOy3Eg/Ou+cGiDzf5GGd/0OEEpAl5qvzomP9TP0orVGWLRW1
eBEzoCXhsDkPG+IvUH8SKgK6B//H/BYJ7ptQ3Usx4IFoFi4WIrpdzbm9Z8q0otT+
jqudN1yBP58b+R3wwwyRWPZjrLqZGbez+BNdCgMIkwIxiovk5twgPustcMKwKy+a
H0iV5fVhEMUpf+Eqx/T1gQxD3zXyKQLglnaPsnuVMW2LQRgq4gWsxVAU2kQUDXxg
57vD41tv10vBarzLGUyOXevfkkUkB01K5RJ/ecPlv0qxQuXcVX+DffNP0Vrsl4n2
QfECAwEAAaN7MHkwCQYDVR0TBAIwADAsBglghkgBhvhCAQ0EHxYdT3BlblNTTCBH
ZW5lcmF0ZWQgQ2VydGlmaWNhdGUwHQYDVR0OBBYEFIKwSqAOh0OWjqgfJ3g2/PeA
cCF/MB8GA1UdIwQYMBaAFGQwSpbilfeZiWHaYi88STMbrhfXMA0GCSqGSIb3DQEB
CwUAA4IBAQCJClAWC4pBaO4/aWFLoXWm487LxKtpgFIAa8VgQIgU5WqcycVBjk/P
TdD/xvq+1eSGl+mYW2GoOyBYX2jLbCcz5yTfbf5zHwBnjRL7IKVeo2FOuy+N/zZr
oyGG9kto8xjfSBettLADhoFYyJwVlywAAohd/9w2ZuYj9tFgc3j7lnYzU5Myu5QX
wO9mVXlFHbiuz2cpYH+qDbO9vzNB8oZXqHJivSqFZ1NIMrypYB9Yh3SndBCQImPZ
j7tZ3PfKx4614lpctBD1SmUcLBEfsyJbn0c+8v5S3ixstjk1LJvIcae1kjbDvrnL
+kq3UrqzrbTRL6hg56lPOKvuU90fe9rl
-----END CERTIFICATE-----
