Certificate:
    Data:
        Version: 3 (0x2)
        Serial Number: 3 (0x3)
        Signature Algorithm: sha256WithRSAEncryption
        Issuer: C=IT, ST=Napoli, L=Castellammare, O=UNISA, OU=Autorit\xC3\x83\xC2\xA0CA, CN=CASicurezza
        Validity
            Not Before: Jun  2 17:01:49 2020 GMT
            Not After : Jun  2 17:01:49 2021 GMT
        Subject: C=IT, ST=Napoli, O=UNISA, OU=ServerProxy, CN=127.0.0.1
        Subject Public Key Info:
            Public Key Algorithm: rsaEncryption
                RSA Public-Key: (4096 bit)
                Modulus:
                    00:b5:2a:c2:ec:c0:7a:93:b9:6d:a6:25:5f:67:71:
                    03:05:10:a3:b9:6a:b4:03:f4:fa:2e:f3:a5:74:82:
                    b2:09:b0:9a:a9:c1:dc:63:64:f6:c0:a7:d3:de:0f:
                    6a:99:cf:7a:27:12:0d:84:43:0c:e5:59:4f:dc:a6:
                    66:b3:e7:3b:1d:ea:cd:d2:e2:b1:26:81:c3:9c:15:
                    36:d6:e5:f0:88:d2:77:da:aa:23:f2:fd:66:73:d8:
                    cc:1d:32:6a:78:3f:69:a4:d0:e7:68:cc:63:af:52:
                    50:56:cc:42:01:62:6b:f2:fd:2c:ce:4e:e2:6b:70:
                    ac:96:e3:4d:94:cc:29:8b:5c:5d:2e:ed:a1:5a:89:
                    85:3a:aa:ac:29:17:b4:a1:90:86:0b:7b:f0:c2:17:
                    34:c1:ad:38:42:fb:2c:f9:2a:a3:97:a1:dc:fd:10:
                    17:a6:dd:06:70:a1:99:e9:86:10:18:53:69:2c:ad:
                    29:d7:36:0c:8d:2f:b2:6f:b1:73:51:c5:f1:e8:29:
                    f2:3c:69:7e:8b:93:41:e9:28:ff:22:e8:7a:9c:8f:
                    3f:fa:22:5f:1d:fe:26:d0:41:51:ce:af:86:49:14:
                    c5:c0:87:cd:c4:bf:42:5e:f8:74:85:11:20:16:cc:
                    cc:82:6a:c7:e5:b0:a4:4c:e5:ec:ac:58:79:1a:3f:
                    f6:9d:47:2f:58:51:94:bf:4b:f2:67:36:f7:23:1f:
                    ec:7d:a1:9e:43:99:d9:73:ad:4f:27:73:eb:00:5d:
                    07:47:c2:ae:61:e3:c4:62:1f:32:a1:b0:8c:e9:d6:
                    e3:bb:b7:3b:a1:ae:c3:40:be:60:d6:6b:7a:35:f6:
                    e3:09:eb:00:ab:53:94:d3:6a:d3:78:7c:7b:1c:7f:
                    35:d8:aa:5f:91:18:04:08:d8:63:37:6e:cf:ea:f3:
                    1d:bc:f0:a6:78:86:e2:c8:4b:dc:77:26:40:1b:9a:
                    73:eb:f5:87:c8:b8:26:d2:d3:06:92:24:cf:51:90:
                    06:c6:dd:31:59:3f:62:dc:f5:32:7b:72:d7:46:a7:
                    90:b0:69:a2:e2:4b:bf:7c:42:ad:bd:e1:2c:bb:bb:
                    7f:ee:2c:2f:73:25:b8:fd:c2:43:87:b2:9d:93:a7:
                    99:62:3b:af:e6:f7:19:13:14:b5:61:d9:37:31:dd:
                    ea:1a:75:63:5b:4d:7e:f6:34:0e:a8:45:26:cd:f2:
                    d5:9d:c7:cc:ad:80:0f:1a:88:85:46:ca:9f:a6:dd:
                    a2:a3:7c:09:35:88:23:f2:38:2e:b9:bd:70:f2:fd:
                    3a:5c:54:de:0a:88:5c:54:b4:46:f8:26:1a:3e:c4:
                    f9:c7:80:71:47:bd:b1:63:f5:30:16:03:1f:1e:d0:
                    65:d6:fb
                Exponent: 65537 (0x10001)
        X509v3 extensions:
            X509v3 Basic Constraints: 
                CA:FALSE
            Netscape Comment: 
                OpenSSL Generated Certificate
            X509v3 Subject Key Identifier: 
                FE:2E:D6:24:85:D5:5E:DC:65:B7:3E:5C:83:FD:48:2F:8B:50:3A:8C
            X509v3 Authority Key Identifier: 
                keyid:64:30:4A:96:E2:95:F7:99:89:61:DA:62:2F:3C:49:33:1B:AE:17:D7

    Signature Algorithm: sha256WithRSAEncryption
         62:2f:d8:74:3a:69:50:31:50:8f:ef:75:9a:2e:23:87:d8:4c:
         4f:c2:3b:c8:dc:93:38:65:69:0f:9b:cb:1b:c3:56:11:b4:ca:
         0f:8b:c7:09:5c:e9:46:d0:52:f3:2f:c4:92:1f:a8:7c:dd:5e:
         d0:42:d4:73:9e:ab:04:7f:25:bb:b3:80:af:0a:08:ac:6d:6a:
         a7:d1:b6:6d:e5:fa:e1:5e:d6:25:5d:59:19:a7:a8:4f:68:fb:
         ab:e3:9b:13:9c:0f:b8:e4:c4:43:e6:3d:33:2c:2e:ca:66:40:
         ce:11:c0:a1:de:77:73:d7:d7:11:af:06:ed:87:44:ae:d2:57:
         d9:68:ab:45:25:e4:2e:a1:15:80:8b:a8:77:e1:d1:b4:cd:f9:
         c6:77:17:2b:58:87:7e:20:13:f3:a8:9d:90:c7:37:28:cf:37:
         7d:c1:90:6e:a8:c9:cb:c2:0a:49:28:06:82:b6:96:42:a0:4a:
         6d:af:fb:b5:a3:7d:89:11:5c:4e:3d:4b:8e:0d:00:7b:da:ab:
         32:f8:fe:d4:c2:c8:df:a8:d4:be:4e:b9:d2:4f:74:e2:67:44:
         c0:2a:ce:e1:57:1a:f9:17:1f:02:68:1e:1d:40:6b:92:a9:da:
         f4:6e:bb:56:e3:b6:a8:97:d5:46:38:e9:d9:48:6b:6b:98:04:
         bf:54:e7:e2
-----BEGIN CERTIFICATE-----
MIIEwjCCA6qgAwIBAgIBAzANBgkqhkiG9w0BAQsFADB0MQswCQYDVQQGEwJJVDEP
MA0GA1UECAwGTmFwb2xpMRYwFAYDVQQHDA1DYXN0ZWxsYW1tYXJlMQ4wDAYDVQQK
DAVVTklTQTEWMBQGA1UECwwNQXV0b3JpdMODwqBDQTEUMBIGA1UEAwwLQ0FTaWN1
cmV6emEwHhcNMjAwNjAyMTcwMTQ5WhcNMjEwNjAyMTcwMTQ5WjBYMQswCQYDVQQG
EwJJVDEPMA0GA1UECAwGTmFwb2xpMQ4wDAYDVQQKDAVVTklTQTEUMBIGA1UECwwL
U2VydmVyUHJveHkxEjAQBgNVBAMMCTEyNy4wLjAuMTCCAiIwDQYJKoZIhvcNAQEB
BQADggIPADCCAgoCggIBALUqwuzAepO5baYlX2dxAwUQo7lqtAP0+i7zpXSCsgmw
mqnB3GNk9sCn094PapnPeicSDYRDDOVZT9ymZrPnOx3qzdLisSaBw5wVNtbl8IjS
d9qqI/L9ZnPYzB0yang/aaTQ52jMY69SUFbMQgFia/L9LM5O4mtwrJbjTZTMKYtc
XS7toVqJhTqqrCkXtKGQhgt78MIXNMGtOEL7LPkqo5eh3P0QF6bdBnChmemGEBhT
aSytKdc2DI0vsm+xc1HF8egp8jxpfouTQeko/yLoepyPP/oiXx3+JtBBUc6vhkkU
xcCHzcS/Ql74dIURIBbMzIJqx+WwpEzl7KxYeRo/9p1HL1hRlL9L8mc29yMf7H2h
nkOZ2XOtTydz6wBdB0fCrmHjxGIfMqGwjOnW47u3O6Guw0C+YNZrejX24wnrAKtT
lNNq03h8exx/NdiqX5EYBAjYYzduz+rzHbzwpniG4shL3HcmQBuac+v1h8i4JtLT
BpIkz1GQBsbdMVk/Ytz1Mnty10ankLBpouJLv3xCrb3hLLu7f+4sL3MluP3CQ4ey
nZOnmWI7r+b3GRMUtWHZNzHd6hp1Y1tNfvY0DqhFJs3y1Z3HzK2ADxqIhUbKn6bd
oqN8CTWII/I4Lrm9cPL9OlxU3gqIXFS0RvgmGj7E+ceAcUe9sWP1MBYDHx7QZdb7
AgMBAAGjezB5MAkGA1UdEwQCMAAwLAYJYIZIAYb4QgENBB8WHU9wZW5TU0wgR2Vu
ZXJhdGVkIENlcnRpZmljYXRlMB0GA1UdDgQWBBT+LtYkhdVe3GW3PlyD/Ugvi1A6
jDAfBgNVHSMEGDAWgBRkMEqW4pX3mYlh2mIvPEkzG64X1zANBgkqhkiG9w0BAQsF
AAOCAQEAYi/YdDppUDFQj+91mi4jh9hMT8I7yNyTOGVpD5vLG8NWEbTKD4vHCVzp
RtBS8y/Ekh+ofN1e0ELUc56rBH8lu7OArwoIrG1qp9G2beX64V7WJV1ZGaeoT2j7
q+ObE5wPuOTEQ+Y9MywuymZAzhHAod53c9fXEa8G7YdErtJX2WirRSXkLqEVgIuo
d+HRtM35xncXK1iHfiAT86idkMc3KM83fcGQbqjJy8IKSSgGgraWQqBKba/7taN9
iRFcTj1Ljg0Ae9qrMvj+1MLI36jUvk650k904mdEwCrO4Vca+RcfAmgeHUBrkqna
9G67VuO2qJfVRjjp2Uhra5gEv1Tn4g==
-----END CERTIFICATE-----
