Certificate:
    Data:
        Version: 3 (0x2)
        Serial Number: 4 (0x4)
        Signature Algorithm: sha1WithRSAEncryption
        Issuer: C=IT, ST=Napoli, L=castellammare, O=unisa, OU=sicurezzainf, CN=autoritaCA
        Validity
            Not Before: May 31 10:32:49 2020 GMT
            Not After : May 31 10:32:49 2021 GMT
        Subject: C=IT, ST=Napoli, O=unisa, OU=serverGoverno, CN=127.0.0.1
        Subject Public Key Info:
            Public Key Algorithm: rsaEncryption
                Public-Key: (4096 bit)
                Modulus:
                    00:b2:19:5f:7d:36:d0:b7:f2:0a:db:9f:dc:67:82:
                    8e:22:7b:92:20:5c:5d:7a:2c:60:e8:50:c1:d0:1d:
                    ed:70:8c:40:52:28:86:1b:48:c1:07:a5:80:2a:01:
                    82:03:a8:d7:1c:ee:60:85:79:7b:c3:24:2e:fd:07:
                    5c:45:eb:73:b1:59:78:12:40:c0:0e:80:ca:62:97:
                    91:53:61:74:df:e1:a5:cc:f5:8b:b6:6d:2a:70:0f:
                    8f:0c:89:cd:9e:f4:0d:ba:8d:6e:5d:bf:bd:a9:2f:
                    db:58:ab:66:58:5a:78:54:da:c3:42:1a:31:fc:b6:
                    c7:cb:87:e1:13:46:02:a1:0a:ee:39:ce:53:56:8c:
                    0b:21:e0:ef:0f:cc:1a:93:3f:23:85:5b:23:20:ac:
                    b8:c5:13:e0:44:c8:ad:34:ef:d7:af:96:1b:60:ca:
                    0e:44:05:21:f7:92:a6:86:3c:78:84:78:68:c8:81:
                    de:71:b1:4c:6e:97:31:d7:27:ba:69:d0:e1:d2:1d:
                    90:c5:1c:5d:a1:cf:44:00:e0:3c:f1:17:60:cc:95:
                    a2:0e:51:28:00:3f:17:85:83:28:e8:06:86:bc:fa:
                    aa:37:97:32:f7:69:0e:e5:fe:fe:c0:ec:08:7d:a0:
                    6e:b8:ed:d9:97:6f:8d:0d:58:3c:3d:ca:19:28:49:
                    39:0c:92:24:e9:e8:0d:c6:78:be:e8:fd:61:b6:15:
                    0c:d3:d6:d3:5c:0e:05:d7:10:67:62:58:2a:e7:32:
                    74:e5:d1:3d:14:64:6b:a8:61:84:1a:5f:2d:70:40:
                    63:84:05:9c:cd:cb:6b:61:23:50:42:64:1a:07:58:
                    cc:cc:e6:ad:92:18:54:5c:6d:5b:7b:06:55:d7:84:
                    e2:1e:9f:58:f1:f4:34:bf:3a:b5:58:b8:56:89:ad:
                    a8:0d:a2:ed:d2:58:68:74:dd:e9:c9:5a:86:8e:30:
                    d7:e1:3d:05:fd:dd:88:13:43:6d:f6:58:6a:28:19:
                    f3:80:89:6f:3b:f8:2e:ce:29:1f:67:f8:b1:44:04:
                    35:e2:f0:57:09:52:ec:4b:36:83:7e:a3:7c:c1:32:
                    3f:0c:7a:aa:ea:35:f5:03:66:91:05:92:ed:c0:45:
                    5c:d9:b3:cb:1f:0c:e8:3c:9c:67:92:1a:64:6d:7a:
                    06:63:d2:24:8c:b4:b4:2c:a8:ee:27:5c:84:9b:5a:
                    24:9f:d7:f7:9f:b9:59:32:0c:81:a1:97:ed:81:80:
                    74:fc:05:d5:a8:e1:f7:0e:ca:a0:94:72:e4:05:6c:
                    76:0f:af:17:98:c6:00:f1:8d:f5:e1:ad:b3:8d:1d:
                    bb:ef:b0:99:7d:de:41:d0:ab:dd:8a:44:ee:be:f1:
                    e3:e5:4d
                Exponent: 65537 (0x10001)
        X509v3 extensions:
            X509v3 Basic Constraints: 
                CA:FALSE
            Netscape Comment: 
                OpenSSL Generated Certificate
            X509v3 Subject Key Identifier: 
                C2:D3:C6:B4:22:63:A6:24:27:02:E3:E5:F6:20:D2:3D:A8:87:57:53
            X509v3 Authority Key Identifier: 
                keyid:66:A9:F9:BA:16:A2:FD:3C:90:30:3B:19:B9:01:94:45:DB:D1:F9:B9

    Signature Algorithm: sha1WithRSAEncryption
        6a:e9:e4:e6:9b:a2:c6:88:c5:27:36:68:1e:fc:ec:f0:6c:82:
        4f:fb:c0:d0:7b:a8:2e:85:ef:7f:3e:40:1e:97:00:4c:d6:f7:
        fe:ad:11:de:06:7e:a6:a8:59:d7:34:10:1d:6f:c7:4e:7b:ba:
        01:6e:5b:a9:54:8a:ac:43:f2:58:a1:91:ff:51:63:b6:d3:d2:
        38:b9:19:51:05:f4:ab:4c:a1:78:de:ae:12:d6:84:74:4a:bf:
        1b:0b:a2:ac:b1:d2:aa:e9:8a:5b:64:05:a9:40:ae:a7:6b:c7:
        8e:29:a9:b1:34:2f:54:d6:82:36:b6:b4:70:c6:b2:36:35:44:
        22:f1:ba:51:b0:89:e8:b1:a1:ed:3f:22:49:26:c0:09:d4:56:
        90:2d:13:08:89:36:a2:c5:95:03:35:ff:8a:ba:69:1c:83:e4:
        be:09:81:8a:ad:ac:94:94:3e:46:2e:dc:6f:59:18:45:d1:40:
        55:94:27:84:9b:22:8c:51:c6:72:2c:6f:61:01:ba:dd:9d:85:
        c5:37:d4:64:60:a9:c8:ba:ef:3b:42:1f:b7:80:ac:93:d4:b8:
        e1:a3:24:94:50:ad:b7:b8:be:9e:a6:c1:ec:29:a6:cc:e5:4b:
        d7:17:c0:57:95:58:34:e2:5d:ed:4c:5d:77:53:6e:a3:3b:cc:
        7d:32:8a:59
-----BEGIN CERTIFICATE-----
MIIEwjCCA6qgAwIBAgIBBDANBgkqhkiG9w0BAQUFADByMQswCQYDVQQGEwJJVDEP
MA0GA1UECAwGTmFwb2xpMRYwFAYDVQQHDA1jYXN0ZWxsYW1tYXJlMQ4wDAYDVQQK
DAV1bmlzYTEVMBMGA1UECwwMc2ljdXJlenphaW5mMRMwEQYDVQQDDAphdXRvcml0
YUNBMB4XDTIwMDUzMTEwMzI0OVoXDTIxMDUzMTEwMzI0OVowWjELMAkGA1UEBhMC
SVQxDzANBgNVBAgMBk5hcG9saTEOMAwGA1UECgwFdW5pc2ExFjAUBgNVBAsMDXNl
cnZlckdvdmVybm8xEjAQBgNVBAMMCTEyNy4wLjAuMTCCAiIwDQYJKoZIhvcNAQEB
BQADggIPADCCAgoCggIBALIZX3020LfyCtuf3GeCjiJ7kiBcXXosYOhQwdAd7XCM
QFIohhtIwQelgCoBggOo1xzuYIV5e8MkLv0HXEXrc7FZeBJAwA6AymKXkVNhdN/h
pcz1i7ZtKnAPjwyJzZ70DbqNbl2/vakv21irZlhaeFTaw0IaMfy2x8uH4RNGAqEK
7jnOU1aMCyHg7w/MGpM/I4VbIyCsuMUT4ETIrTTv16+WG2DKDkQFIfeSpoY8eIR4
aMiB3nGxTG6XMdcnumnQ4dIdkMUcXaHPRADgPPEXYMyVog5RKAA/F4WDKOgGhrz6
qjeXMvdpDuX+/sDsCH2gbrjt2ZdvjQ1YPD3KGShJOQySJOnoDcZ4vuj9YbYVDNPW
01wOBdcQZ2JYKucydOXRPRRka6hhhBpfLXBAY4QFnM3La2EjUEJkGgdYzMzmrZIY
VFxtW3sGVdeE4h6fWPH0NL86tVi4VomtqA2i7dJYaHTd6claho4w1+E9Bf3diBND
bfZYaigZ84CJbzv4Ls4pH2f4sUQENeLwVwlS7Es2g36jfMEyPwx6quo19QNmkQWS
7cBFXNmzyx8M6DycZ5IaZG16BmPSJIy0tCyo7idchJtaJJ/X95+5WTIMgaGX7YGA
dPwF1ajh9w7KoJRy5AVsdg+vF5jGAPGN9eGts40du++wmX3eQdCr3YpE7r7x4+VN
AgMBAAGjezB5MAkGA1UdEwQCMAAwLAYJYIZIAYb4QgENBB8WHU9wZW5TU0wgR2Vu
ZXJhdGVkIENlcnRpZmljYXRlMB0GA1UdDgQWBBTC08a0ImOmJCcC4+X2INI9qIdX
UzAfBgNVHSMEGDAWgBRmqfm6FqL9PJAwOxm5AZRF29H5uTANBgkqhkiG9w0BAQUF
AAOCAQEAaunk5puixojFJzZoHvzs8GyCT/vA0HuoLoXvfz5AHpcATNb3/q0R3gZ+
pqhZ1zQQHW/HTnu6AW5bqVSKrEPyWKGR/1FjttPSOLkZUQX0q0yheN6uEtaEdEq/
GwuirLHSqumKW2QFqUCup2vHjimpsTQvVNaCNra0cMayNjVEIvG6UbCJ6LGh7T8i
SSbACdRWkC0TCIk2osWVAzX/irppHIPkvgmBiq2slJQ+Ri7cb1kYRdFAVZQnhJsi
jFHGcixvYQG63Z2FxTfUZGCpyLrvO0Ift4Csk9S44aMklFCtt7i+nqbB7CmmzOVL
1xfAV5VYNOJd7Uxdd1NuozvMfTKKWQ==
-----END CERTIFICATE-----
