Certificate:
    Data:
        Version: 3 (0x2)
        Serial Number: 5 (0x5)
        Signature Algorithm: sha1WithRSAEncryption
        Issuer: C=IT, ST=Napoli, L=castellammare, O=unisa, OU=sicurezzainf, CN=autoritaCA
        Validity
            Not Before: May 31 10:42:52 2020 GMT
            Not After : May 31 10:42:52 2021 GMT
        Subject: C=IT, ST=Napoli, O=unisa, OU=serverProxy, CN=127.0.0.1
        Subject Public Key Info:
            Public Key Algorithm: rsaEncryption
                Public-Key: (4096 bit)
                Modulus:
                    00:bd:bf:a8:ce:78:23:7c:33:eb:74:8b:a1:b3:0c:
                    4a:98:4c:53:dd:fa:9b:db:0f:a3:d0:21:8e:f7:a0:
                    6c:ec:5e:2d:31:e3:35:5a:9b:13:8e:22:83:6e:6e:
                    ee:79:09:e3:a2:ec:ff:1c:7b:d7:b9:03:ce:c8:79:
                    cb:37:d7:31:f6:be:b0:6d:32:d6:f3:c8:7c:06:e4:
                    21:25:e3:99:94:98:2d:97:34:35:b2:03:62:15:2d:
                    91:0f:3f:b1:d6:e9:23:d3:cf:7d:af:0a:ba:d9:ff:
                    d5:d2:57:bb:91:8b:3f:ef:6b:66:13:78:ee:d8:2b:
                    e2:f1:67:77:ee:af:82:30:0e:43:32:8a:b4:40:a7:
                    8a:2c:ff:90:29:26:d7:9c:72:20:1d:a2:11:e9:76:
                    5b:42:ed:8f:ed:2c:66:6a:58:24:e0:e0:8c:71:6c:
                    b4:17:00:0e:65:70:1a:ae:d7:0d:ae:21:5c:57:18:
                    52:05:93:33:5e:09:0b:47:ca:32:ab:00:84:06:6d:
                    e3:0e:b6:fb:4d:b7:d9:f5:2a:82:59:7d:29:56:0e:
                    60:fa:01:3c:6f:43:c0:74:aa:6d:17:e6:c7:dc:7a:
                    32:db:fc:a5:0a:e8:33:39:48:8a:bf:2d:1b:1d:27:
                    18:e3:bb:5f:d0:0c:f0:85:da:0d:43:84:ca:39:26:
                    b4:6e:5f:78:0b:73:7d:05:38:a2:f5:72:65:0b:97:
                    f7:2a:dd:b2:5f:e4:ea:ea:f0:f3:eb:f9:06:bc:bc:
                    eb:79:0e:c5:31:dc:e5:57:27:76:d8:a0:64:66:48:
                    bf:ea:67:a8:c1:96:0f:91:fa:ef:47:92:a8:12:6b:
                    0f:60:70:83:a4:d4:e0:b0:c3:5e:a1:54:5e:71:c8:
                    5d:fb:8b:5e:d1:90:91:71:10:a9:83:c2:30:d5:87:
                    64:c2:25:62:02:25:63:bb:98:0b:7e:ff:ee:93:b0:
                    14:b8:cc:47:98:8b:42:fa:4e:c4:71:5b:7e:fa:4e:
                    11:b3:5e:fa:98:93:e7:68:f5:cf:a6:3b:ca:14:92:
                    b6:db:89:6a:8b:c1:12:fe:43:6b:44:87:05:f5:aa:
                    5d:3f:db:c2:b5:1d:84:49:f3:af:fd:94:d6:97:b9:
                    95:79:2e:60:9d:f3:ca:3f:6e:6b:48:9d:92:4b:b1:
                    73:97:87:86:6e:05:3a:2c:12:89:e8:c7:37:2a:ba:
                    76:7c:54:33:1c:c7:e1:43:11:8f:d5:01:de:c4:7b:
                    32:17:2a:c2:f4:0c:fa:86:7b:c1:fc:45:66:9f:79:
                    4b:60:13:a0:0a:36:7d:ce:69:19:a5:8d:14:e9:89:
                    52:7f:69:31:eb:8e:36:c8:34:9c:2c:b1:a3:0a:cd:
                    d7:2f:47
                Exponent: 65537 (0x10001)
        X509v3 extensions:
            X509v3 Basic Constraints: 
                CA:FALSE
            Netscape Comment: 
                OpenSSL Generated Certificate
            X509v3 Subject Key Identifier: 
                31:0C:75:1F:B5:BD:CD:7C:DD:27:8B:3B:9F:26:17:EE:34:2F:95:E8
            X509v3 Authority Key Identifier: 
                keyid:66:A9:F9:BA:16:A2:FD:3C:90:30:3B:19:B9:01:94:45:DB:D1:F9:B9

    Signature Algorithm: sha1WithRSAEncryption
        b0:ab:98:80:93:f0:53:9b:55:e4:fb:20:74:31:91:20:29:fe:
        57:df:21:18:56:82:d1:3c:54:48:fc:30:33:ab:a2:c3:e5:08:
        13:ea:1c:22:09:cc:4a:84:7f:ab:ff:cb:8d:6a:63:ca:e6:96:
        61:a5:c2:a2:c3:24:25:47:26:d9:bc:f6:26:16:62:9b:b0:41:
        56:a4:d4:b2:31:49:a9:88:2f:5c:62:c3:92:5f:cc:44:6e:a6:
        4a:6c:e5:dc:d5:32:88:04:bc:c3:27:b6:c0:69:d1:1e:30:b5:
        92:0e:ed:67:8b:da:2b:24:2a:93:17:eb:32:98:07:fb:77:b1:
        57:6c:3d:26:ac:59:8b:0d:4f:5c:f9:fc:40:c4:f6:95:24:d2:
        64:bb:f2:85:9b:10:1e:fd:3f:d3:ab:c9:7b:b4:a4:43:ad:d3:
        66:18:58:f5:85:7a:c7:fe:d5:64:ac:d6:d9:54:8c:38:1c:bc:
        e2:a4:89:23:5c:c4:54:04:c8:cb:65:19:01:6b:15:d5:00:7e:
        8d:de:53:b0:3d:76:c8:dc:df:16:e4:75:92:d5:40:15:0a:ce:
        54:6f:e6:9a:24:83:96:6a:7d:97:1a:b4:91:ff:58:fb:61:ec:
        91:9d:1a:b0:da:eb:30:b5:13:aa:f0:81:24:36:b8:36:cc:63:
        28:d5:8f:5e
-----BEGIN CERTIFICATE-----
MIIEwDCCA6igAwIBAgIBBTANBgkqhkiG9w0BAQUFADByMQswCQYDVQQGEwJJVDEP
MA0GA1UECAwGTmFwb2xpMRYwFAYDVQQHDA1jYXN0ZWxsYW1tYXJlMQ4wDAYDVQQK
DAV1bmlzYTEVMBMGA1UECwwMc2ljdXJlenphaW5mMRMwEQYDVQQDDAphdXRvcml0
YUNBMB4XDTIwMDUzMTEwNDI1MloXDTIxMDUzMTEwNDI1MlowWDELMAkGA1UEBhMC
SVQxDzANBgNVBAgMBk5hcG9saTEOMAwGA1UECgwFdW5pc2ExFDASBgNVBAsMC3Nl
cnZlclByb3h5MRIwEAYDVQQDDAkxMjcuMC4wLjEwggIiMA0GCSqGSIb3DQEBAQUA
A4ICDwAwggIKAoICAQC9v6jOeCN8M+t0i6GzDEqYTFPd+pvbD6PQIY73oGzsXi0x
4zVamxOOIoNubu55CeOi7P8ce9e5A87Iecs31zH2vrBtMtbzyHwG5CEl45mUmC2X
NDWyA2IVLZEPP7HW6SPTz32vCrrZ/9XSV7uRiz/va2YTeO7YK+LxZ3fur4IwDkMy
irRAp4os/5ApJtecciAdohHpdltC7Y/tLGZqWCTg4IxxbLQXAA5lcBqu1w2uIVxX
GFIFkzNeCQtHyjKrAIQGbeMOtvtNt9n1KoJZfSlWDmD6ATxvQ8B0qm0X5sfcejLb
/KUK6DM5SIq/LRsdJxjju1/QDPCF2g1DhMo5JrRuX3gLc30FOKL1cmULl/cq3bJf
5Orq8PPr+Qa8vOt5DsUx3OVXJ3bYoGRmSL/qZ6jBlg+R+u9HkqgSaw9gcIOk1OCw
w16hVF5xyF37i17RkJFxEKmDwjDVh2TCJWICJWO7mAt+/+6TsBS4zEeYi0L6TsRx
W376ThGzXvqYk+do9c+mO8oUkrbbiWqLwRL+Q2tEhwX1ql0/28K1HYRJ86/9lNaX
uZV5LmCd88o/bmtInZJLsXOXh4ZuBTosEonoxzcqunZ8VDMcx+FDEY/VAd7EezIX
KsL0DPqGe8H8RWafeUtgE6AKNn3OaRmljRTpiVJ/aTHrjjbINJwssaMKzdcvRwID
AQABo3sweTAJBgNVHRMEAjAAMCwGCWCGSAGG+EIBDQQfFh1PcGVuU1NMIEdlbmVy
YXRlZCBDZXJ0aWZpY2F0ZTAdBgNVHQ4EFgQUMQx1H7W9zXzdJ4s7nyYX7jQvlegw
HwYDVR0jBBgwFoAUZqn5uhai/TyQMDsZuQGURdvR+bkwDQYJKoZIhvcNAQEFBQAD
ggEBALCrmICT8FObVeT7IHQxkSAp/lffIRhWgtE8VEj8MDOrosPlCBPqHCIJzEqE
f6v/y41qY8rmlmGlwqLDJCVHJtm89iYWYpuwQVak1LIxSamIL1xiw5JfzERupkps
5dzVMogEvMMntsBp0R4wtZIO7WeL2iskKpMX6zKYB/t3sVdsPSasWYsNT1z5/EDE
9pUk0mS78oWbEB79P9OryXu0pEOt02YYWPWFesf+1WSs1tlUjDgcvOKkiSNcxFQE
yMtlGQFrFdUAfo3eU7A9dsjc3xbkdZLVQBUKzlRv5pokg5ZqfZcatJH/WPth7JGd
GrDa6zC1E6rwgSQ2uDbMYyjVj14=
-----END CERTIFICATE-----
