Certificate:
    Data:
        Version: 3 (0x2)
        Serial Number: 2 (0x2)
        Signature Algorithm: sha256WithRSAEncryption
        Issuer: C=IT, ST=Napoli, L=Castellammare, O=UNISA, OU=Autorit\xC3\x83\xC2\xA0CA, CN=CASicurezza
        Validity
            Not Before: Jun  2 17:01:28 2020 GMT
            Not After : Jun  2 17:01:28 2021 GMT
        Subject: C=IT, ST=Napoli, O=UNISA, OU=LaboratorioAnalisi, CN=127.0.0.1
        Subject Public Key Info:
            Public Key Algorithm: rsaEncryption
                RSA Public-Key: (4096 bit)
                Modulus:
                    00:a9:00:4a:72:ff:7b:02:4c:b2:b0:56:26:3b:25:
                    37:ff:88:86:74:9c:10:09:8f:fd:a4:bb:48:fd:2f:
                    ff:19:41:65:67:92:a1:7e:22:0e:ef:69:66:4d:30:
                    bb:dc:17:42:b1:87:ac:f9:a2:ec:ad:8d:d2:ce:e1:
                    f8:8e:37:19:ae:7e:d0:0e:6e:17:c7:6d:77:dd:38:
                    24:f8:e9:ec:71:b5:39:3b:df:6e:ba:4f:b6:eb:28:
                    be:5a:ff:e4:1d:9f:32:ea:ff:aa:7c:ea:dc:2d:f1:
                    1a:2b:23:61:a9:d3:02:3a:ca:ad:10:cb:6c:c9:7d:
                    dd:34:91:69:4b:0b:d4:fa:ef:4e:57:bb:b3:e8:45:
                    57:c9:17:97:35:62:15:ed:07:74:a9:62:d5:d5:e0:
                    66:42:aa:61:3f:a6:56:30:8f:34:08:a6:aa:71:61:
                    e7:b6:aa:5b:1a:17:90:fc:90:3f:e6:7a:bd:f8:99:
                    3e:cf:db:e1:c0:82:58:a7:de:52:83:a0:c1:36:85:
                    5a:ee:cf:2a:9e:e1:71:1c:57:f4:a3:50:05:8c:32:
                    17:fc:9c:6a:fb:74:f0:e1:7b:cf:b7:a4:90:2d:36:
                    61:22:a4:aa:5f:c1:f0:0d:95:85:ca:11:52:ba:57:
                    ab:08:a4:3c:b4:50:3a:f8:67:2d:95:b9:15:7d:c3:
                    dd:c1:7a:e8:a0:4a:d9:58:2b:b6:2b:61:79:e9:d3:
                    db:50:f7:b4:ed:f3:2f:ae:8e:2d:97:5e:e4:16:99:
                    8f:57:87:e0:bb:4b:da:8a:8f:a9:75:fe:ff:c0:3c:
                    69:62:5e:d5:c6:4a:4b:1d:8a:a9:ba:23:91:14:55:
                    87:6f:c0:a4:a8:df:42:c9:c3:43:35:ac:b8:28:d9:
                    cc:5b:fc:7d:f0:8a:11:29:34:bb:68:cc:e3:bc:81:
                    74:ff:a0:89:a3:0c:04:9f:e3:fc:77:df:0a:4a:f0:
                    d8:82:a5:c1:7f:1c:a2:18:86:86:3d:4e:a0:9b:4e:
                    52:96:63:68:72:79:8a:34:39:9c:91:65:24:11:30:
                    38:7f:3b:7e:7e:62:5a:05:84:36:c5:a3:f3:e6:ec:
                    4b:52:ce:38:08:04:b8:a3:3a:e9:42:f1:d7:fe:38:
                    3b:ef:ca:49:74:38:cc:23:4b:bb:a5:c1:e5:b2:13:
                    93:9c:6c:62:7d:3d:c8:fd:e0:e0:80:4e:da:a8:13:
                    fb:08:ea:74:02:2b:c3:64:ac:76:9b:4c:05:11:20:
                    bf:18:72:06:d7:ee:b6:95:5c:c4:3f:41:99:15:ea:
                    70:f2:55:17:38:ca:1e:44:96:f2:79:c1:b4:ad:36:
                    4f:5d:a0:6f:03:d3:76:e3:1e:fc:b2:d2:01:4b:b5:
                    ef:49:03
                Exponent: 65537 (0x10001)
        X509v3 extensions:
            X509v3 Basic Constraints: 
                CA:FALSE
            Netscape Comment: 
                OpenSSL Generated Certificate
            X509v3 Subject Key Identifier: 
                39:17:F5:93:E4:9A:C6:28:62:18:FC:52:C3:81:5E:E5:35:2B:CB:DA
            X509v3 Authority Key Identifier: 
                keyid:64:30:4A:96:E2:95:F7:99:89:61:DA:62:2F:3C:49:33:1B:AE:17:D7

    Signature Algorithm: sha256WithRSAEncryption
         4b:12:5c:1f:93:f5:0d:c2:12:9a:33:3c:92:47:20:fa:e2:e8:
         5c:2e:bb:af:1e:ce:de:0c:13:5e:69:b9:6b:b0:e5:67:71:55:
         32:2f:23:a9:ec:75:3f:99:61:f9:2a:29:90:bd:8b:fd:60:4c:
         48:d5:10:a8:fc:b3:b7:89:d5:fb:e2:11:02:3b:db:d0:1c:48:
         fd:ce:50:10:74:39:93:41:18:52:f0:0b:25:61:5b:a9:18:fe:
         ea:05:44:78:df:51:cf:04:a5:ee:2d:b4:cb:42:c6:3b:ba:fe:
         a3:c1:c2:d5:9c:72:1a:68:0d:18:a4:48:24:4f:29:ba:9d:53:
         4d:92:a9:d0:1e:47:8e:1d:32:90:ea:a4:4f:07:8c:06:23:9d:
         57:14:b0:a9:bf:9f:86:e3:bc:1d:76:69:83:f2:c5:06:d3:25:
         30:ea:85:c9:dd:62:4d:2b:d3:05:a3:38:1a:5d:68:2d:40:75:
         3e:6b:18:ba:36:e0:fe:6e:6a:64:1c:ac:c1:66:d0:64:22:12:
         4c:cc:91:4c:17:b0:5e:98:5d:45:87:7a:71:0c:e7:0a:05:63:
         af:99:4d:f9:4a:2a:20:1d:bc:2e:3e:f8:be:bd:db:5c:00:9a:
         7f:93:7b:27:07:88:fd:ee:28:9e:03:c2:61:71:4f:ae:55:ee:
         50:fa:c4:a7
-----BEGIN CERTIFICATE-----
MIIEyTCCA7GgAwIBAgIBAjANBgkqhkiG9w0BAQsFADB0MQswCQYDVQQGEwJJVDEP
MA0GA1UECAwGTmFwb2xpMRYwFAYDVQQHDA1DYXN0ZWxsYW1tYXJlMQ4wDAYDVQQK
DAVVTklTQTEWMBQGA1UECwwNQXV0b3JpdMODwqBDQTEUMBIGA1UEAwwLQ0FTaWN1
cmV6emEwHhcNMjAwNjAyMTcwMTI4WhcNMjEwNjAyMTcwMTI4WjBfMQswCQYDVQQG
EwJJVDEPMA0GA1UECAwGTmFwb2xpMQ4wDAYDVQQKDAVVTklTQTEbMBkGA1UECwwS
TGFib3JhdG9yaW9BbmFsaXNpMRIwEAYDVQQDDAkxMjcuMC4wLjEwggIiMA0GCSqG
SIb3DQEBAQUAA4ICDwAwggIKAoICAQCpAEpy/3sCTLKwViY7JTf/iIZ0nBAJj/2k
u0j9L/8ZQWVnkqF+Ig7vaWZNMLvcF0Kxh6z5ouytjdLO4fiONxmuftAObhfHbXfd
OCT46exxtTk73266T7brKL5a/+QdnzLq/6p86twt8RorI2Gp0wI6yq0Qy2zJfd00
kWlLC9T6705Xu7PoRVfJF5c1YhXtB3SpYtXV4GZCqmE/plYwjzQIpqpxYee2qlsa
F5D8kD/mer34mT7P2+HAglin3lKDoME2hVruzyqe4XEcV/SjUAWMMhf8nGr7dPDh
e8+3pJAtNmEipKpfwfANlYXKEVK6V6sIpDy0UDr4Zy2VuRV9w93BeuigStlYK7Yr
YXnp09tQ97Tt8y+uji2XXuQWmY9Xh+C7S9qKj6l1/v/APGliXtXGSksdiqm6I5EU
VYdvwKSo30LJw0M1rLgo2cxb/H3wihEpNLtozOO8gXT/oImjDASf4/x33wpK8NiC
pcF/HKIYhoY9TqCbTlKWY2hyeYo0OZyRZSQRMDh/O35+YloFhDbFo/Pm7EtSzjgI
BLijOulC8df+ODvvykl0OMwjS7ulweWyE5OcbGJ9Pcj94OCATtqoE/sI6nQCK8Nk
rHabTAURIL8YcgbX7raVXMQ/QZkV6nDyVRc4yh5ElvJ5wbStNk9doG8D03bjHvyy
0gFLte9JAwIDAQABo3sweTAJBgNVHRMEAjAAMCwGCWCGSAGG+EIBDQQfFh1PcGVu
U1NMIEdlbmVyYXRlZCBDZXJ0aWZpY2F0ZTAdBgNVHQ4EFgQUORf1k+SaxihiGPxS
w4Fe5TUry9owHwYDVR0jBBgwFoAUZDBKluKV95mJYdpiLzxJMxuuF9cwDQYJKoZI
hvcNAQELBQADggEBAEsSXB+T9Q3CEpozPJJHIPri6Fwuu68ezt4ME15puWuw5Wdx
VTIvI6nsdT+ZYfkqKZC9i/1gTEjVEKj8s7eJ1fviEQI729AcSP3OUBB0OZNBGFLw
CyVhW6kY/uoFRHjfUc8Epe4ttMtCxju6/qPBwtWcchpoDRikSCRPKbqdU02SqdAe
R44dMpDqpE8HjAYjnVcUsKm/n4bjvB12aYPyxQbTJTDqhcndYk0r0wWjOBpdaC1A
dT5rGLo24P5uamQcrMFm0GQiEkzMkUwXsF6YXUWHenEM5woFY6+ZTflKKiAdvC4+
+L6921wAmn+TeycHiP3uKJ4DwmFxT65V7lD6xKc=
-----END CERTIFICATE-----
